target datalayout = "e-m:e-p270:32:32-p271:32:32-p272:64:64-i64:64-i128:128-f80:128-n8:16:32:64-S128"
target triple = "x86_64-pc-linux-gnu"

%struct.RelMapFile = type { i32, i32, [64 x %struct.RelMapping], i32 }
%struct.RelMapping = type { i32, i32 }

@active_shared_updates = internal global %struct.RelMapFile zeroinitializer, align 4
@active_local_updates = internal global %struct.RelMapFile zeroinitializer, align 4
@pending_shared_updates = internal global %struct.RelMapFile zeroinitializer, align 4
@pending_local_updates = internal global %struct.RelMapFile zeroinitializer, align 4

; Function Attrs: nounwind uwtable
define dso_local void @AtEOXact_RelationMap(i1 noundef zeroext %0, i1 noundef zeroext %1) #0 {
  %3 = alloca i8, align 1
  %4 = alloca i8, align 1
  %5 = zext i1 %0 to i8
  store i8 %5, ptr %3, align 1
  %6 = zext i1 %1 to i8
  store i8 %6, ptr %4, align 1
  %7 = load i8, ptr %3, align 1, !range !4, !noundef !5
  %8 = trunc i8 %7 to i1
  br i1 %8, label %9, label %21

9:                                                ; preds = %2
  %10 = load i8, ptr %4, align 1, !range !4, !noundef !5
  %11 = trunc i8 %10 to i1
  br i1 %11, label %21, label %12

12:                                               ; preds = %9
  %13 = load i32, ptr getelementptr inbounds nuw (%struct.RelMapFile, ptr @active_shared_updates, i32 0, i32 1), align 4
  %14 = icmp ne i32 %13, 0
  br i1 %14, label %15, label %16

15:                                               ; preds = %12
  call void @perform_relmap_update(i1 noundef zeroext true, ptr noundef @active_shared_updates)
  store i32 0, ptr getelementptr inbounds nuw (%struct.RelMapFile, ptr @active_shared_updates, i32 0, i32 1), align 4
  br label %16

16:                                               ; preds = %15, %12
  %17 = load i32, ptr getelementptr inbounds nuw (%struct.RelMapFile, ptr @active_local_updates, i32 0, i32 1), align 4
  %18 = icmp ne i32 %17, 0
  br i1 %18, label %19, label %20

19:                                               ; preds = %16
  call void @perform_relmap_update(i1 noundef zeroext false, ptr noundef @active_local_updates)
  store i32 0, ptr getelementptr inbounds nuw (%struct.RelMapFile, ptr @active_local_updates, i32 0, i32 1), align 4
  br label %20

20:                                               ; preds = %19, %16
  br label %22

21:                                               ; preds = %9, %2
  store i32 0, ptr getelementptr inbounds nuw (%struct.RelMapFile, ptr @active_shared_updates, i32 0, i32 1), align 4
  store i32 0, ptr getelementptr inbounds nuw (%struct.RelMapFile, ptr @active_local_updates, i32 0, i32 1), align 4
  store i32 0, ptr getelementptr inbounds nuw (%struct.RelMapFile, ptr @pending_shared_updates, i32 0, i32 1), align 4
  store i32 0, ptr getelementptr inbounds nuw (%struct.RelMapFile, ptr @pending_local_updates, i32 0, i32 1), align 4
  br label %22

22:                                               ; preds = %21, %20
  ret void
}